target datalayout = "e-m:e-p270:32:32-p271:32:32-p272:64:64-i64:64-i128:128-f80:128-n8:16:32:64-S128"
target triple = "x86_64-pc-linux-gnu"

%struct.LexState = type { ptr, ptr, %union.TValue, %union.TValue, ptr, ptr, i32, i32, i32, %struct.SBuf, ptr, ptr, i32, i32, ptr, ptr, ptr, ptr, i32, i32, ptr, i32, i32, i32, i32 }
%union.TValue = type { i64 }
%struct.SBuf = type { ptr, ptr, ptr, %struct.MRef }
%struct.MRef = type { i64 }

; Function Attrs: alwaysinline nounwind uwtable
define internal ptr @lj_buf_need(ptr noundef %0, i32 noundef %1) #2 {
  %3 = alloca ptr, align 8
  %4 = alloca ptr, align 8
  %5 = alloca i32, align 4
  store ptr %0, ptr %4, align 8, !tbaa !80
  store i32 %1, ptr %5, align 4, !tbaa !9
  %6 = load i32, ptr %5, align 4, !tbaa !9
  %7 = load ptr, ptr %4, align 8, !tbaa !80
  %8 = getelementptr inbounds nuw %struct.SBuf, ptr %7, i32 0, i32 1
  %9 = load ptr, ptr %8, align 8, !tbaa !114
  %10 = load ptr, ptr %4, align 8, !tbaa !80
  %11 = getelementptr inbounds nuw %struct.SBuf, ptr %10, i32 0, i32 2
  %12 = load ptr, ptr %11, align 8, !tbaa !82
  %13 = ptrtoint ptr %9 to i64
  %14 = ptrtoint ptr %12 to i64
  %15 = sub i64 %13, %14
  %16 = trunc i64 %15 to i32
  %17 = icmp ugt i32 %6, %16
  %18 = xor i1 %17, true
  %19 = xor i1 %18, true
  %20 = zext i1 %19 to i32
  %21 = sext i32 %20 to i64
  %22 = call i64 @llvm.expect.i64(i64 %21, i64 0)
  %23 = icmp ne i64 %22, 0
  br i1 %23, label %24, label %28

24:                                               ; preds = %2
  %25 = load ptr, ptr %4, align 8, !tbaa !80
  %26 = load i32, ptr %5, align 4, !tbaa !9
  %27 = call ptr @lj_buf_need2(ptr noundef %25, i32 noundef %26)
  store ptr %27, ptr %3, align 8
  br label %32

28:                                               ; preds = %2
  %29 = load ptr, ptr %4, align 8, !tbaa !80
  %30 = getelementptr inbounds nuw %struct.SBuf, ptr %29, i32 0, i32 2
  %31 = load ptr, ptr %30, align 8, !tbaa !82
  store ptr %31, ptr %3, align 8
  br label %32

32:                                               ; preds = %28, %24
  %33 = load ptr, ptr %3, align 8
  ret ptr %33
}

; Function Attrs: noinline nounwind uwtable
define internal void @bcread_fill(ptr noundef %0, i32 noundef %1, i32 noundef %2) #4 {
  %4 = alloca ptr, align 8
  %5 = alloca i32, align 4
  %6 = alloca i32, align 4
  %7 = alloca ptr, align 8
  %8 = alloca i64, align 8
  %9 = alloca ptr, align 8
  %10 = alloca i32, align 4
  %11 = alloca i32, align 4
  store ptr %0, ptr %4, align 8, !tbaa !4
  store i32 %1, ptr %5, align 4, !tbaa !9
  store i32 %2, ptr %6, align 4, !tbaa !9
  %12 = load i32, ptr %5, align 4, !tbaa !9
  %13 = icmp ugt i32 %12, 2147483392
  br i1 %13, label %19, label %14

14:                                               ; preds = %3
  %15 = load ptr, ptr %4, align 8, !tbaa !4
  %16 = getelementptr inbounds nuw %struct.LexState, ptr %15, i32 0, i32 6
  %17 = load i32, ptr %16, align 8, !tbaa !108
  %18 = icmp slt i32 %17, 0
  br i1 %18, label %19, label %21

19:                                               ; preds = %14, %3
  %20 = load ptr, ptr %4, align 8, !tbaa !4
  call void @bcread_error(ptr noundef %20, i32 noundef 2985)
  br label %21

21:                                               ; preds = %19, %14
  br label %22

22:                                               ; preds = %184, %21
  call void @llvm.lifetime.start.p0(i64 8, ptr %7) #10
  call void @llvm.lifetime.start.p0(i64 8, ptr %8) #10
  call void @llvm.lifetime.start.p0(i64 8, ptr %9) #10
  %23 = load ptr, ptr %4, align 8, !tbaa !4
  %24 = getelementptr inbounds nuw %struct.LexState, ptr %23, i32 0, i32 9
  %25 = getelementptr inbounds nuw %struct.SBuf, ptr %24, i32 0, i32 2
  %26 = load ptr, ptr %25, align 8, !tbaa !109
  store ptr %26, ptr %9, align 8, !tbaa !60
  call void @llvm.lifetime.start.p0(i64 4, ptr %10) #10
  %27 = load ptr, ptr %4, align 8, !tbaa !4
  %28 = getelementptr inbounds nuw %struct.LexState, ptr %27, i32 0, i32 5
  %29 = load ptr, ptr %28, align 8, !tbaa !77
  %30 = load ptr, ptr %4, align 8, !tbaa !4
  %31 = getelementptr inbounds nuw %struct.LexState, ptr %30, i32 0, i32 4
  %32 = load ptr, ptr %31, align 8, !tbaa !47
  %33 = ptrtoint ptr %29 to i64
  %34 = ptrtoint ptr %32 to i64
  %35 = sub i64 %33, %34
  %36 = trunc i64 %35 to i32
  store i32 %36, ptr %10, align 4, !tbaa !9
  %37 = load i32, ptr %10, align 4, !tbaa !9
  %38 = icmp ne i32 %37, 0
  br i1 %38, label %39, label %88

39:                                               ; preds = %22
  %40 = load ptr, ptr %4, align 8, !tbaa !4
  %41 = getelementptr inbounds nuw %struct.LexState, ptr %40, i32 0, i32 9
  %42 = getelementptr inbounds nuw %struct.SBuf, ptr %41, i32 0, i32 0
  %43 = load ptr, ptr %42, align 8, !tbaa !110
  %44 = load ptr, ptr %4, align 8, !tbaa !4
  %45 = getelementptr inbounds nuw %struct.LexState, ptr %44, i32 0, i32 9
  %46 = getelementptr inbounds nuw %struct.SBuf, ptr %45, i32 0, i32 2
  %47 = load ptr, ptr %46, align 8, !tbaa !109
  %48 = ptrtoint ptr %43 to i64
  %49 = ptrtoint ptr %47 to i64
  %50 = sub i64 %48, %49
  %51 = trunc i64 %50 to i32
  %52 = icmp ne i32 %51, 0
  br i1 %52, label %53, label %67

53:                                               ; preds = %39
  %54 = load ptr, ptr %4, align 8, !tbaa !4
  %55 = getelementptr inbounds nuw %struct.LexState, ptr %54, i32 0, i32 4
  %56 = load ptr, ptr %55, align 8, !tbaa !47
  %57 = load ptr, ptr %9, align 8, !tbaa !60
  %58 = icmp ne ptr %56, %57
  br i1 %58, label %59, label %66

59:                                               ; preds = %53
  %60 = load ptr, ptr %9, align 8, !tbaa !60
  %61 = load ptr, ptr %4, align 8, !tbaa !4
  %62 = getelementptr inbounds nuw %struct.LexState, ptr %61, i32 0, i32 4
  %63 = load ptr, ptr %62, align 8, !tbaa !47
  %64 = load i32, ptr %10, align 4, !tbaa !9
  %65 = zext i32 %64 to i64
  call void @llvm.memmove.p0.p0.i64(ptr align 1 %60, ptr align 1 %63, i64 %65, i1 false)
  br label %66

66:                                               ; preds = %59, %53
  br label %78

67:                                               ; preds = %39
  %68 = load ptr, ptr %4, align 8, !tbaa !4
  %69 = getelementptr inbounds nuw %struct.LexState, ptr %68, i32 0, i32 9
  %70 = load i32, ptr %5, align 4, !tbaa !9
  %71 = call ptr @lj_buf_need(ptr noundef %69, i32 noundef %70)
  store ptr %71, ptr %9, align 8, !tbaa !60
  %72 = load ptr, ptr %9, align 8, !tbaa !60
  %73 = load ptr, ptr %4, align 8, !tbaa !4
  %74 = getelementptr inbounds nuw %struct.LexState, ptr %73, i32 0, i32 4
  %75 = load ptr, ptr %74, align 8, !tbaa !47
  %76 = load i32, ptr %10, align 4, !tbaa !9
  %77 = zext i32 %76 to i64
  call void @llvm.memcpy.p0.p0.i64(ptr align 1 %72, ptr align 1 %75, i64 %77, i1 false)
  br label %78

78:                                               ; preds = %67, %66
  %79 = load ptr, ptr %9, align 8, !tbaa !60
  %80 = load ptr, ptr %4, align 8, !tbaa !4
  %81 = getelementptr inbounds nuw %struct.LexState, ptr %80, i32 0, i32 4
  store ptr %79, ptr %81, align 8, !tbaa !47
  %82 = load ptr, ptr %9, align 8, !tbaa !60
  %83 = load i32, ptr %10, align 4, !tbaa !9
  %84 = zext i32 %83 to i64
  %85 = getelementptr inbounds nuw i8, ptr %82, i64 %84
  %86 = load ptr, ptr %4, align 8, !tbaa !4
  %87 = getelementptr inbounds nuw %struct.LexState, ptr %86, i32 0, i32 5
  store ptr %85, ptr %87, align 8, !tbaa !77
  br label %88

88:                                               ; preds = %78, %22
  %89 = load ptr, ptr %9, align 8, !tbaa !60
  %90 = load i32, ptr %10, align 4, !tbaa !9
  %91 = zext i32 %90 to i64
  %92 = getelementptr inbounds nuw i8, ptr %89, i64 %91
  %93 = load ptr, ptr %4, align 8, !tbaa !4
  %94 = getelementptr inbounds nuw %struct.LexState, ptr %93, i32 0, i32 9
  %95 = getelementptr inbounds nuw %struct.SBuf, ptr %94, i32 0, i32 0
  store ptr %92, ptr %95, align 8, !tbaa !110
  %96 = load ptr, ptr %4, align 8, !tbaa !4
  %97 = getelementptr inbounds nuw %struct.LexState, ptr %96, i32 0, i32 10
  %98 = load ptr, ptr %97, align 8, !tbaa !111
  %99 = load ptr, ptr %4, align 8, !tbaa !4
  %100 = getelementptr inbounds nuw %struct.LexState, ptr %99, i32 0, i32 1
  %101 = load ptr, ptr %100, align 8, !tbaa !22
  %102 = load ptr, ptr %4, align 8, !tbaa !4
  %103 = getelementptr inbounds nuw %struct.LexState, ptr %102, i32 0, i32 11
  %104 = load ptr, ptr %103, align 8, !tbaa !112
  %105 = call ptr %98(ptr noundef %101, ptr noundef %104, ptr noundef %8)
  store ptr %105, ptr %7, align 8, !tbaa !60
  %106 = load ptr, ptr %7, align 8, !tbaa !60
  %107 = icmp eq ptr %106, null
  br i1 %107, label %111, label %108

108:                                              ; preds = %88
  %109 = load i64, ptr %8, align 8, !tbaa !93
  %110 = icmp eq i64 %109, 0
  br i1 %110, label %111, label %119

111:                                              ; preds = %108, %88
  %112 = load i32, ptr %6, align 4, !tbaa !9
  %113 = icmp ne i32 %112, 0
  br i1 %113, label %114, label %116

114:                                              ; preds = %111
  %115 = load ptr, ptr %4, align 8, !tbaa !4
  call void @bcread_error(ptr noundef %115, i32 noundef 2985)
  br label %116

116:                                              ; preds = %114, %111
  %117 = load ptr, ptr %4, align 8, !tbaa !4
  %118 = getelementptr inbounds nuw %struct.LexState, ptr %117, i32 0, i32 6
  store i32 -1, ptr %118, align 8, !tbaa !108
  store i32 2, ptr %11, align 4
  br label %181

119:                                              ; preds = %108
  %120 = load i64, ptr %8, align 8, !tbaa !93
  %121 = load i32, ptr %10, align 4, !tbaa !9
  %122 = sub i32 2147483392, %121
  %123 = zext i32 %122 to i64
  %124 = icmp uge i64 %120, %123
  br i1 %124, label %125, label %129

125:                                              ; preds = %119
  %126 = load ptr, ptr %4, align 8, !tbaa !4
  %127 = getelementptr inbounds nuw %struct.LexState, ptr %126, i32 0, i32 1
  %128 = load ptr, ptr %127, align 8, !tbaa !22
  call void @lj_err_mem(ptr noundef %128) #12
  unreachable

129:                                              ; preds = %119
  %130 = load i32, ptr %10, align 4, !tbaa !9
  %131 = icmp ne i32 %130, 0
  br i1 %131, label %132, label %171

132:                                              ; preds = %129
  %133 = load i64, ptr %8, align 8, !tbaa !93
  %134 = trunc i64 %133 to i32
  %135 = load i32, ptr %10, align 4, !tbaa !9
  %136 = add i32 %135, %134
  store i32 %136, ptr %10, align 4, !tbaa !9
  %137 = load ptr, ptr %4, align 8, !tbaa !4
  %138 = getelementptr inbounds nuw %struct.LexState, ptr %137, i32 0, i32 9
  %139 = load i32, ptr %10, align 4, !tbaa !9
  %140 = load i32, ptr %5, align 4, !tbaa !9
  %141 = icmp ult i32 %139, %140
  br i1 %141, label %142, label %144

142:                                              ; preds = %132
  %143 = load i32, ptr %5, align 4, !tbaa !9
  br label %146

144:                                              ; preds = %132
  %145 = load i32, ptr %10, align 4, !tbaa !9
  br label %146

146:                                              ; preds = %144, %142
  %147 = phi i32 [ %143, %142 ], [ %145, %144 ]
  %148 = call ptr @lj_buf_need(ptr noundef %138, i32 noundef %147)
  store ptr %148, ptr %9, align 8, !tbaa !60
  %149 = load ptr, ptr %4, align 8, !tbaa !4
  %150 = getelementptr inbounds nuw %struct.LexState, ptr %149, i32 0, i32 9
  %151 = getelementptr inbounds nuw %struct.SBuf, ptr %150, i32 0, i32 0
  %152 = load ptr, ptr %151, align 8, !tbaa !110
  %153 = load ptr, ptr %7, align 8, !tbaa !60
  %154 = load i64, ptr %8, align 8, !tbaa !93
  call void @llvm.memcpy.p0.p0.i64(ptr align 1 %152, ptr align 1 %153, i64 %154, i1 false)
  %155 = load ptr, ptr %9, align 8, !tbaa !60
  %156 = load i32, ptr %10, align 4, !tbaa !9
  %157 = zext i32 %156 to i64
  %158 = getelementptr inbounds nuw i8, ptr %155, i64 %157
  %159 = load ptr, ptr %4, align 8, !tbaa !4
  %160 = getelementptr inbounds nuw %struct.LexState, ptr %159, i32 0, i32 9
  %161 = getelementptr inbounds nuw %struct.SBuf, ptr %160, i32 0, i32 0
  store ptr %158, ptr %161, align 8, !tbaa !110
  %162 = load ptr, ptr %9, align 8, !tbaa !60
  %163 = load ptr, ptr %4, align 8, !tbaa !4
  %164 = getelementptr inbounds nuw %struct.LexState, ptr %163, i32 0, i32 4
  store ptr %162, ptr %164, align 8, !tbaa !47
  %165 = load ptr, ptr %9, align 8, !tbaa !60
  %166 = load i32, ptr %10, align 4, !tbaa !9
  %167 = zext i32 %166 to i64
  %168 = getelementptr inbounds nuw i8, ptr %165, i64 %167
  %169 = load ptr, ptr %4, align 8, !tbaa !4
  %170 = getelementptr inbounds nuw %struct.LexState, ptr %169, i32 0, i32 5
  store ptr %168, ptr %170, align 8, !tbaa !77
  br label %180

171:                                              ; preds = %129
  %172 = load ptr, ptr %7, align 8, !tbaa !60
  %173 = load ptr, ptr %4, align 8, !tbaa !4
  %174 = getelementptr inbounds nuw %struct.LexState, ptr %173, i32 0, i32 4
  store ptr %172, ptr %174, align 8, !tbaa !47
  %175 = load ptr, ptr %7, align 8, !tbaa !60
  %176 = load i64, ptr %8, align 8, !tbaa !93
  %177 = getelementptr inbounds nuw i8, ptr %175, i64 %176
  %178 = load ptr, ptr %4, align 8, !tbaa !4
  %179 = getelementptr inbounds nuw %struct.LexState, ptr %178, i32 0, i32 5
  store ptr %177, ptr %179, align 8, !tbaa !77
  br label %180

180:                                              ; preds = %171, %146
  store i32 0, ptr %11, align 4
  br label %181

181:                                              ; preds = %180, %116
  call void @llvm.lifetime.end.p0(i64 4, ptr %10) #10
  call void @llvm.lifetime.end.p0(i64 8, ptr %9) #10
  call void @llvm.lifetime.end.p0(i64 8, ptr %8) #10
  call void @llvm.lifetime.end.p0(i64 8, ptr %7) #10
  %182 = load i32, ptr %11, align 4
  switch i32 %182, label %198 [
    i32 0, label %183
    i32 2, label %197
  ]

183:                                              ; preds = %181
  br label %184

184:                                              ; preds = %183
  %185 = load ptr, ptr %4, align 8, !tbaa !4
  %186 = getelementptr inbounds nuw %struct.LexState, ptr %185, i32 0, i32 5
  %187 = load ptr, ptr %186, align 8, !tbaa !77
  %188 = load ptr, ptr %4, align 8, !tbaa !4
  %189 = getelementptr inbounds nuw %struct.LexState, ptr %188, i32 0, i32 4
  %190 = load ptr, ptr %189, align 8, !tbaa !47
  %191 = ptrtoint ptr %187 to i64
  %192 = ptrtoint ptr %190 to i64
  %193 = sub i64 %191, %192
  %194 = trunc i64 %193 to i32
  %195 = load i32, ptr %5, align 4, !tbaa !9
  %196 = icmp ult i32 %194, %195
  br i1 %196, label %22, label %197, !llvm.loop !113

197:                                              ; preds = %184, %181
  ret void

198:                                              ; preds = %181
  unreachable
}