; Function Attrs: noinline nounwind uwtable
define internal fastcc void @bcread_fill(ptr noundef %0, i32 noundef %1, i32 noundef range(i32 0, 2) %2) unnamed_addr #8 {
  %4 = alloca i64, align 8
  %5 = icmp ugt i32 %1, 2147483392
  br i1 %5, label %18, label %6

6:                                                ; preds = %3
  %7 = getelementptr inbounds nuw i8, ptr %0, i64 48
  %8 = load i32, ptr %7, align 8, !tbaa !87
  %9 = icmp slt i32 %8, 0
  br i1 %9, label %18, label %.preheader

.preheader:                                       ; preds = %6
  %10 = getelementptr inbounds nuw i8, ptr %0, i64 64
  %11 = getelementptr inbounds nuw i8, ptr %0, i64 80
  %12 = getelementptr inbounds nuw i8, ptr %0, i64 40
  %13 = getelementptr inbounds nuw i8, ptr %0, i64 32
  %14 = getelementptr inbounds nuw i8, ptr %0, i64 72
  %15 = getelementptr inbounds nuw i8, ptr %0, i64 96
  %16 = getelementptr inbounds nuw i8, ptr %0, i64 8
  %17 = getelementptr inbounds nuw i8, ptr %0, i64 104
  %.pre = load ptr, ptr %12, align 8, !tbaa !73
  %.pre82 = load ptr, ptr %13, align 8, !tbaa !4
  br label %21

18:                                               ; preds = %6, %3
  %19 = getelementptr i8, ptr %0, i64 8
  %.val76 = load ptr, ptr %19, align 8, !tbaa !21
  %20 = getelementptr i8, ptr %0, i64 128
  %.val77 = load ptr, ptr %20, align 8, !tbaa !58
  tail call fastcc void @bcread_error(ptr %.val76, ptr %.val77, i32 noundef 2985)
  unreachable

21:                                               ; preds = %.preheader, %85
  %22 = phi ptr [ %.pre82, %.preheader ], [ %86, %85 ]
  %23 = phi ptr [ %.pre, %.preheader ], [ %storemerge, %85 ]
  call void @llvm.lifetime.start.p0(i64 8, ptr nonnull %4) #11
  %24 = load ptr, ptr %11, align 8, !tbaa !88
  %25 = ptrtoint ptr %23 to i64
  %26 = ptrtoint ptr %22 to i64
  %27 = sub i64 %25, %26
  %28 = trunc i64 %27 to i32
  %.not = icmp eq i32 %28, 0
  br i1 %.not, label %._crit_edge85, label %29

29:                                               ; preds = %21
  %30 = load ptr, ptr %10, align 8, !tbaa !89
  %31 = ptrtoint ptr %30 to i64
  %32 = ptrtoint ptr %24 to i64
  %33 = sub i64 %31, %32
  %34 = and i64 %33, 4294967295
  %.not69 = icmp eq i64 %34, 0
  br i1 %.not69, label %37, label %35

35:                                               ; preds = %29
  %.not70 = icmp eq ptr %22, %24
  %.pre87 = and i64 %27, 4294967295
  br i1 %.not70, label %._crit_edge, label %36

36:                                               ; preds = %35
  call void @llvm.memmove.p0.p0.i64(ptr align 1 %24, ptr align 1 %22, i64 %.pre87, i1 false)
  br label %._crit_edge

37:                                               ; preds = %29
  %38 = load ptr, ptr %14, align 8, !tbaa !90
  %39 = ptrtoint ptr %38 to i64
  %40 = sub i64 %39, %32
  %41 = trunc i64 %40 to i32
  %42 = icmp ugt i32 %1, %41
  br i1 %42, label %43, label %lj_buf_need.exit, !prof !60

43:                                               ; preds = %37
  %44 = call ptr @lj_buf_need2(ptr noundef nonnull %10, i32 noundef %1) #11
  %.pre83 = load ptr, ptr %13, align 8, !tbaa !4
  br label %lj_buf_need.exit

lj_buf_need.exit:                                 ; preds = %37, %43
  %45 = phi ptr [ %.pre83, %43 ], [ %22, %37 ]
  %.0.i = phi ptr [ %44, %43 ], [ %24, %37 ]
  %46 = and i64 %27, 4294967295
  call void @llvm.memcpy.p0.p0.i64(ptr align 1 %.0.i, ptr align 1 %45, i64 %46, i1 false)
  br label %._crit_edge

._crit_edge:                                      ; preds = %35, %36, %lj_buf_need.exit
  %.pre-phi88 = phi i64 [ %.pre87, %36 ], [ %46, %lj_buf_need.exit ], [ %.pre87, %35 ]
  %.1 = phi ptr [ %24, %36 ], [ %.0.i, %lj_buf_need.exit ], [ %24, %35 ]
  store ptr %.1, ptr %13, align 8, !tbaa !4
  %47 = getelementptr inbounds nuw i8, ptr %.1, i64 %.pre-phi88
  store ptr %47, ptr %12, align 8, !tbaa !73
  br label %._crit_edge85

._crit_edge85:                                    ; preds = %21, %._crit_edge
  %.pre-phi = phi i64 [ %.pre-phi88, %._crit_edge ], [ 0, %21 ]
  %.061 = phi ptr [ %.1, %._crit_edge ], [ %24, %21 ]
  %48 = getelementptr inbounds nuw i8, ptr %.061, i64 %.pre-phi
  store ptr %48, ptr %10, align 8, !tbaa !89
  %49 = load ptr, ptr %15, align 8, !tbaa !91
  %50 = load ptr, ptr %16, align 8, !tbaa !21
  %51 = load ptr, ptr %17, align 8, !tbaa !92
  %52 = call ptr %49(ptr noundef %50, ptr noundef %51, ptr noundef nonnull %4) #11
  %53 = icmp eq ptr %52, null
  %54 = load i64, ptr %4, align 8
  %55 = icmp eq i64 %54, 0
  %or.cond = select i1 %53, i1 true, i1 %55
  br i1 %or.cond, label %56, label %59

56:                                               ; preds = %._crit_edge85
  %.not72 = icmp eq i32 %2, 0
  br i1 %.not72, label %84, label %57

57:                                               ; preds = %56
  %.val = load ptr, ptr %16, align 8, !tbaa !21
  %58 = getelementptr i8, ptr %0, i64 128
  %.val75 = load ptr, ptr %58, align 8, !tbaa !58
  call fastcc void @bcread_error(ptr %.val, ptr %.val75, i32 noundef 2985)
  unreachable

59:                                               ; preds = %._crit_edge85
  %60 = sub i64 2147483392, %27
  %61 = and i64 %60, 4294967295
  %.not71 = icmp ult i64 %54, %61
  br i1 %.not71, label %64, label %62

62:                                               ; preds = %59
  %63 = load ptr, ptr %16, align 8, !tbaa !21
  call void @lj_err_mem(ptr noundef %63) #13
  unreachable

64:                                               ; preds = %59
  br i1 %.not, label %82, label %65

65:                                               ; preds = %64
  %66 = trunc nuw i64 %54 to i32
  %67 = add i32 %66, %28
  %68 = call i32 @llvm.umax.i32(i32 %67, i32 %1)
  %69 = load ptr, ptr %14, align 8, !tbaa !90
  %70 = load ptr, ptr %11, align 8, !tbaa !71
  %71 = ptrtoint ptr %69 to i64
  %72 = ptrtoint ptr %70 to i64
  %73 = sub i64 %71, %72
  %74 = trunc i64 %73 to i32
  %75 = icmp ugt i32 %68, %74
  br i1 %75, label %76, label %lj_buf_need.exit74, !prof !60

76:                                               ; preds = %65
  %77 = call ptr @lj_buf_need2(ptr noundef nonnull %10, i32 noundef %68) #11
  %.pre84 = load i64, ptr %4, align 8, !tbaa !93
  br label %lj_buf_need.exit74

lj_buf_need.exit74:                               ; preds = %65, %76
  %78 = phi i64 [ %.pre84, %76 ], [ %54, %65 ]
  %.0.i73 = phi ptr [ %77, %76 ], [ %70, %65 ]
  %79 = load ptr, ptr %10, align 8, !tbaa !89
  call void @llvm.memcpy.p0.p0.i64(ptr align 1 %79, ptr nonnull align 1 %52, i64 %78, i1 false)
  %80 = zext i32 %67 to i64
  %81 = getelementptr inbounds nuw i8, ptr %.0.i73, i64 %80
  store ptr %81, ptr %10, align 8, !tbaa !89
  store ptr %.0.i73, ptr %13, align 8, !tbaa !4
  br label %85

82:                                               ; preds = %64
  store ptr %52, ptr %13, align 8, !tbaa !4
  %83 = getelementptr inbounds nuw i8, ptr %52, i64 %54
  br label %85

84:                                               ; preds = %56
  store i32 -1, ptr %7, align 8, !tbaa !87
  call void @llvm.lifetime.end.p0(i64 8, ptr nonnull %4) #11
  br label %.loopexit

85:                                               ; preds = %lj_buf_need.exit74, %82
  %86 = phi ptr [ %52, %82 ], [ %.0.i73, %lj_buf_need.exit74 ]
  %storemerge = phi ptr [ %83, %82 ], [ %81, %lj_buf_need.exit74 ]
  store ptr %storemerge, ptr %12, align 8, !tbaa !73
  call void @llvm.lifetime.end.p0(i64 8, ptr nonnull %4) #11
  %87 = ptrtoint ptr %storemerge to i64
  %88 = ptrtoint ptr %86 to i64
  %89 = sub i64 %87, %88
  %90 = trunc i64 %89 to i32
  %91 = icmp ugt i32 %1, %90
  br i1 %91, label %21, label %.loopexit, !llvm.loop !94

.loopexit:                                        ; preds = %85, %84
  ret void
}